; Function Attrs: nounwind uwtable
define i32 @php_open_temporary_fd_ex(ptr noundef %0, ptr noundef %1, ptr noundef %2, i32 noundef %3) local_unnamed_addr #0 {
  %.not = icmp eq ptr %1, null
  %spec.store.select = select i1 %.not, ptr @.str.2, ptr %1
  %.not24 = icmp eq ptr %2, null
  br i1 %.not24, label %6, label %5

5:                                                ; preds = %4
  store ptr null, ptr %2, align 8
  br label %6

6:                                                ; preds = %5, %4
  %.not25 = icmp eq ptr %0, null
  br i1 %.not25, label %10, label %7

7:                                                ; preds = %6
  %8 = load i8, ptr %0, align 1
  %9 = icmp eq i8 %8, 0
  br i1 %9, label %10, label %20

10:                                               ; preds = %27, %29, %6, %7
  %11 = tail call ptr @php_get_temporary_directory()
  %.not29 = icmp eq ptr %11, null
  br i1 %.not29, label %30, label %12

12:                                               ; preds = %10
  %13 = load i8, ptr %11, align 1
  %.not30 = icmp eq i8 %13, 0
  br i1 %.not30, label %30, label %14

14:                                               ; preds = %12
  %15 = and i32 %3, 1
  %.not31 = icmp eq i32 %15, 0
  br i1 %.not31, label %18, label %16

16:                                               ; preds = %14
  %17 = tail call i32 @php_check_open_basedir(ptr noundef nonnull %11) #9
  %.not32 = icmp eq i32 %17, 0
  br i1 %.not32, label %18, label %30

18:                                               ; preds = %16, %14
  %19 = tail call fastcc i32 @php_do_open_temporary_file(ptr noundef nonnull %11, ptr noundef nonnull %spec.store.select, ptr noundef %2)
  br label %30

20:                                               ; preds = %7
  %21 = and i32 %3, 4
  %.not26 = icmp eq i32 %21, 0
  br i1 %.not26, label %24, label %22

22:                                               ; preds = %20
  %23 = tail call i32 @php_check_open_basedir(ptr noundef nonnull %0) #9
  %.not27 = icmp eq i32 %23, 0
  br i1 %.not27, label %24, label %30

24:                                               ; preds = %22, %20
  %25 = tail call fastcc i32 @php_do_open_temporary_file(ptr noundef nonnull %0, ptr noundef nonnull %spec.store.select, ptr noundef %2)
  %26 = icmp eq i32 %25, -1
  br i1 %26, label %27, label %30

27:                                               ; preds = %24
  %28 = and i32 %3, 2
  %.not28 = icmp eq i32 %28, 0
  br i1 %.not28, label %29, label %10

29:                                               ; preds = %27
  tail call void (ptr, i32, ptr, ...) @php_error_docref(ptr noundef null, i32 noundef 8, ptr noundef nonnull @.str.3) #9
  br label %10

30:                                               ; preds = %24, %22, %10, %12, %16, %18
  %.0 = phi i32 [ %19, %18 ], [ -1, %16 ], [ -1, %12 ], [ -1, %10 ], [ -1, %22 ], [ %25, %24 ]
  ret i32 %.0
}